target datalayout = "e-m:e-p270:32:32-p271:32:32-p272:64:64-i64:64-i128:128-f80:128-n8:16:32:64-S128"
target triple = "x86_64-pc-linux-gnu"

%struct.user_data_st = type { ptr, ptr, i64, i64, i64, i32, i32 }

@bio_err = external global ptr, align 8
@.str.522 = private unnamed_addr constant [7 x i8] c"ERROR\0A\00", align 1
@.str.531 = private unnamed_addr constant [6 x i8] c"DONE\0A\00", align 1
@.str.567 = private unnamed_addr constant [2 x i8] c"\0A\00", align 1
@.str.630 = private unnamed_addr constant [4 x i8] c"req\00", align 1
@.str.631 = private unnamed_addr constant [6 x i8] c"noreq\00", align 1
@.str.639 = private unnamed_addr constant [52 x i8] c"Enter text to send to the peer followed by <enter>\0A\00", align 1
@.str.640 = private unnamed_addr constant [67 x i8] c"To issue a command insert {cmd} or {cmd:arg} anywhere in the text\0A\00", align 1
@.str.641 = private unnamed_addr constant [37 x i8] c"Entering {{ will send { to the peer\0A\00", align 1
@.str.642 = private unnamed_addr constant [38 x i8] c"The following commands are available\0A\00", align 1
@.str.643 = private unnamed_addr constant [30 x i8] c"  {help}: Get this help text\0A\00", align 1
@.str.644 = private unnamed_addr constant [44 x i8] c"  {quit}: Close the connection to the peer\0A\00", align 1
@.str.645 = private unnamed_addr constant [38 x i8] c"  {reconnect}: Reconnect to the peer\0A\00", align 1
@.str.646 = private unnamed_addr constant [65 x i8] c"  {fin}: Send FIN on the stream. No further writing is possible\0A\00", align 1
@.str.647 = private unnamed_addr constant [48 x i8] c"  {keyup:req|noreq}: Send a Key Update message\0A\00", align 1
@.str.648 = private unnamed_addr constant [33 x i8] c"                     Arguments:\0A\00", align 1
@.str.649 = private unnamed_addr constant [62 x i8] c"                     req   = peer update requested (default)\0A\00", align 1
@.str.650 = private unnamed_addr constant [56 x i8] c"                     noreq = peer update not requested\0A\00", align 1
@.str.651 = private unnamed_addr constant [35 x i8] c"  {reneg}: Attempt to renegotiate\0A\00", align 1
@.str.652 = private unnamed_addr constant [14 x i8] c"RECONNECTING\0A\00", align 1
@.str.653 = private unnamed_addr constant [15 x i8] c"RENEGOTIATING\0A\00", align 1
@.str.654 = private unnamed_addr constant [11 x i8] c"KEYUPDATE\0A\00", align 1

; Function Attrs: nounwind uwtable
define internal i32 @user_data_execute(ptr noundef %0, i32 noundef %1, ptr noundef %2) #0 {
  %4 = alloca i32, align 4
  %5 = alloca ptr, align 8
  %6 = alloca i32, align 4
  %7 = alloca ptr, align 8
  %8 = alloca i32, align 4
  %9 = alloca i32, align 4
  store ptr %0, ptr %5, align 8, !tbaa !128
  store i32 %1, ptr %6, align 4, !tbaa !4
  store ptr %2, ptr %7, align 8, !tbaa !29
  %10 = load i32, ptr %6, align 4, !tbaa !4
  switch i32 %10, label %118 [
    i32 0, label %11
    i32 1, label %56
    i32 2, label %59
    i32 3, label %73
    i32 4, label %83
    i32 5, label %108
  ]

11:                                               ; preds = %3
  %12 = load ptr, ptr @bio_err, align 8, !tbaa !40
  %13 = call i32 (ptr, ptr, ...) @BIO_printf(ptr noundef %12, ptr noundef @.str.639)
  %14 = load ptr, ptr @bio_err, align 8, !tbaa !40
  %15 = call i32 (ptr, ptr, ...) @BIO_printf(ptr noundef %14, ptr noundef @.str.640)
  %16 = load ptr, ptr @bio_err, align 8, !tbaa !40
  %17 = call i32 (ptr, ptr, ...) @BIO_printf(ptr noundef %16, ptr noundef @.str.641)
  %18 = load ptr, ptr @bio_err, align 8, !tbaa !40
  %19 = call i32 (ptr, ptr, ...) @BIO_printf(ptr noundef %18, ptr noundef @.str.642)
  %20 = load ptr, ptr @bio_err, align 8, !tbaa !40
  %21 = call i32 (ptr, ptr, ...) @BIO_printf(ptr noundef %20, ptr noundef @.str.643)
  %22 = load ptr, ptr @bio_err, align 8, !tbaa !40
  %23 = call i32 (ptr, ptr, ...) @BIO_printf(ptr noundef %22, ptr noundef @.str.644)
  %24 = load ptr, ptr @bio_err, align 8, !tbaa !40
  %25 = call i32 (ptr, ptr, ...) @BIO_printf(ptr noundef %24, ptr noundef @.str.645)
  %26 = load ptr, ptr %5, align 8, !tbaa !128
  %27 = getelementptr inbounds nuw %struct.user_data_st, ptr %26, i32 0, i32 0
  %28 = load ptr, ptr %27, align 8, !tbaa !130
  %29 = call i32 @SSL_is_quic(ptr noundef %28)
  %30 = icmp ne i32 %29, 0
  br i1 %30, label %31, label %34

31:                                               ; preds = %11
  %32 = load ptr, ptr @bio_err, align 8, !tbaa !40
  %33 = call i32 (ptr, ptr, ...) @BIO_printf(ptr noundef %32, ptr noundef @.str.646)
  br label %53

34:                                               ; preds = %11
  %35 = load ptr, ptr %5, align 8, !tbaa !128
  %36 = getelementptr inbounds nuw %struct.user_data_st, ptr %35, i32 0, i32 0
  %37 = load ptr, ptr %36, align 8, !tbaa !130
  %38 = call i32 @SSL_version(ptr noundef %37)
  %39 = icmp eq i32 %38, 772
  br i1 %39, label %40, label %49

40:                                               ; preds = %34
  %41 = load ptr, ptr @bio_err, align 8, !tbaa !40
  %42 = call i32 (ptr, ptr, ...) @BIO_printf(ptr noundef %41, ptr noundef @.str.647)
  %43 = load ptr, ptr @bio_err, align 8, !tbaa !40
  %44 = call i32 (ptr, ptr, ...) @BIO_printf(ptr noundef %43, ptr noundef @.str.648)
  %45 = load ptr, ptr @bio_err, align 8, !tbaa !40
  %46 = call i32 (ptr, ptr, ...) @BIO_printf(ptr noundef %45, ptr noundef @.str.649)
  %47 = load ptr, ptr @bio_err, align 8, !tbaa !40
  %48 = call i32 (ptr, ptr, ...) @BIO_printf(ptr noundef %47, ptr noundef @.str.650)
  br label %52

49:                                               ; preds = %34
  %50 = load ptr, ptr @bio_err, align 8, !tbaa !40
  %51 = call i32 (ptr, ptr, ...) @BIO_printf(ptr noundef %50, ptr noundef @.str.651)
  br label %52

52:                                               ; preds = %49, %40
  br label %53

53:                                               ; preds = %52, %31
  %54 = load ptr, ptr @bio_err, align 8, !tbaa !40
  %55 = call i32 (ptr, ptr, ...) @BIO_printf(ptr noundef %54, ptr noundef @.str.567)
  store i32 3, ptr %4, align 4
  br label %123

56:                                               ; preds = %3
  %57 = load ptr, ptr @bio_err, align 8, !tbaa !40
  %58 = call i32 (ptr, ptr, ...) @BIO_printf(ptr noundef %57, ptr noundef @.str.531)
  store i32 1, ptr %4, align 4
  br label %123

59:                                               ; preds = %3
  %60 = load ptr, ptr @bio_err, align 8, !tbaa !40
  %61 = call i32 (ptr, ptr, ...) @BIO_printf(ptr noundef %60, ptr noundef @.str.652)
  %62 = load ptr, ptr %5, align 8, !tbaa !128
  %63 = getelementptr inbounds nuw %struct.user_data_st, ptr %62, i32 0, i32 0
  %64 = load ptr, ptr %63, align 8, !tbaa !130
  call void @do_ssl_shutdown(ptr noundef %64)
  %65 = load ptr, ptr %5, align 8, !tbaa !128
  %66 = getelementptr inbounds nuw %struct.user_data_st, ptr %65, i32 0, i32 0
  %67 = load ptr, ptr %66, align 8, !tbaa !130
  call void @SSL_set_connect_state(ptr noundef %67)
  %68 = load ptr, ptr %5, align 8, !tbaa !128
  %69 = getelementptr inbounds nuw %struct.user_data_st, ptr %68, i32 0, i32 0
  %70 = load ptr, ptr %69, align 8, !tbaa !130
  %71 = call i32 @SSL_get_fd(ptr noundef %70)
  %72 = call i32 @BIO_closesocket(i32 noundef %71)
  store i32 2, ptr %4, align 4
  br label %123

73:                                               ; preds = %3
  %74 = load ptr, ptr @bio_err, align 8, !tbaa !40
  %75 = call i32 (ptr, ptr, ...) @BIO_printf(ptr noundef %74, ptr noundef @.str.653)
  %76 = load ptr, ptr %5, align 8, !tbaa !128
  %77 = getelementptr inbounds nuw %struct.user_data_st, ptr %76, i32 0, i32 0
  %78 = load ptr, ptr %77, align 8, !tbaa !130
  %79 = call i32 @SSL_renegotiate(ptr noundef %78)
  %80 = icmp ne i32 %79, 0
  br i1 %80, label %82, label %81

81:                                               ; preds = %73
  br label %119

82:                                               ; preds = %73
  store i32 4, ptr %4, align 4
  br label %123

83:                                               ; preds = %3
  call void @llvm.lifetime.start.p0(i64 4, ptr %8) #10
  %84 = load ptr, ptr %7, align 8, !tbaa !29
  %85 = call i32 @OPENSSL_strcasecmp(ptr noundef %84, ptr noundef @.str.630)
  %86 = icmp eq i32 %85, 0
  br i1 %86, label %87, label %88

87:                                               ; preds = %83
  store i32 1, ptr %8, align 4, !tbaa !4
  br label %95

88:                                               ; preds = %83
  %89 = load ptr, ptr %7, align 8, !tbaa !29
  %90 = call i32 @OPENSSL_strcasecmp(ptr noundef %89, ptr noundef @.str.631)
  %91 = icmp eq i32 %90, 0
  br i1 %91, label %92, label %93

92:                                               ; preds = %88
  store i32 0, ptr %8, align 4, !tbaa !4
  br label %94

93:                                               ; preds = %88
  store i32 0, ptr %4, align 4
  store i32 1, ptr %9, align 4
  br label %106

94:                                               ; preds = %92
  br label %95

95:                                               ; preds = %94, %87
  %96 = load ptr, ptr @bio_err, align 8, !tbaa !40
  %97 = call i32 (ptr, ptr, ...) @BIO_printf(ptr noundef %96, ptr noundef @.str.654)
  %98 = load ptr, ptr %5, align 8, !tbaa !128
  %99 = getelementptr inbounds nuw %struct.user_data_st, ptr %98, i32 0, i32 0
  %100 = load ptr, ptr %99, align 8, !tbaa !130
  %101 = load i32, ptr %8, align 4, !tbaa !4
  %102 = call i32 @SSL_key_update(ptr noundef %100, i32 noundef %101)
  %103 = icmp ne i32 %102, 0
  br i1 %103, label %105, label %104

104:                                              ; preds = %95
  store i32 2, ptr %9, align 4
  br label %106

105:                                              ; preds = %95
  store i32 4, ptr %4, align 4
  store i32 1, ptr %9, align 4
  br label %106

106:                                              ; preds = %105, %104, %93
  call void @llvm.lifetime.end.p0(i64 4, ptr %8) #10
  %107 = load i32, ptr %9, align 4
  switch i32 %107, label %125 [
    i32 1, label %123
    i32 2, label %119
  ]

108:                                              ; preds = %3
  %109 = load ptr, ptr %5, align 8, !tbaa !128
  %110 = getelementptr inbounds nuw %struct.user_data_st, ptr %109, i32 0, i32 0
  %111 = load ptr, ptr %110, align 8, !tbaa !130
  %112 = call i32 @SSL_stream_conclude(ptr noundef %111, i64 noundef 0)
  %113 = icmp ne i32 %112, 0
  br i1 %113, label %115, label %114

114:                                              ; preds = %108
  br label %119

115:                                              ; preds = %108
  %116 = load ptr, ptr %5, align 8, !tbaa !128
  %117 = getelementptr inbounds nuw %struct.user_data_st, ptr %116, i32 0, i32 6
  store i32 1, ptr %117, align 4, !tbaa !137
  store i32 3, ptr %4, align 4
  br label %123

118:                                              ; preds = %3
  br label %119

119:                                              ; preds = %118, %114, %106, %81
  %120 = load ptr, ptr @bio_err, align 8, !tbaa !40
  %121 = call i32 (ptr, ptr, ...) @BIO_printf(ptr noundef %120, ptr noundef @.str.522)
  %122 = load ptr, ptr @bio_err, align 8, !tbaa !40
  call void @ERR_print_errors(ptr noundef %122)
  store i32 1, ptr %4, align 4
  br label %123

123:                                              ; preds = %119, %115, %106, %82, %59, %56, %53
  %124 = load i32, ptr %4, align 4
  ret i32 %124

125:                                              ; preds = %106
  unreachable
}