; Function Attrs: nounwind uwtable
define internal fastcc range(i32 0, 5) i32 @user_data_execute(ptr noundef nonnull captures(none) %0, i32 noundef range(i32 0, 6) %1, ptr noundef %2) unnamed_addr #0 {
  switch i32 %1, label %default.unreachable24 [
    i32 0, label %4
    i32 1, label %42
    i32 2, label %45
    i32 3, label %53
    i32 4, label %58
    i32 5, label %69
  ]

4:                                                ; preds = %3
  %5 = load ptr, ptr @bio_err, align 8, !tbaa !19
  %6 = tail call i32 (ptr, ptr, ...) @BIO_printf(ptr noundef %5, ptr noundef nonnull @.str.639) #15
  %7 = load ptr, ptr @bio_err, align 8, !tbaa !19
  %8 = tail call i32 (ptr, ptr, ...) @BIO_printf(ptr noundef %7, ptr noundef nonnull @.str.640) #15
  %9 = load ptr, ptr @bio_err, align 8, !tbaa !19
  %10 = tail call i32 (ptr, ptr, ...) @BIO_printf(ptr noundef %9, ptr noundef nonnull @.str.641) #15
  %11 = load ptr, ptr @bio_err, align 8, !tbaa !19
  %12 = tail call i32 (ptr, ptr, ...) @BIO_printf(ptr noundef %11, ptr noundef nonnull @.str.642) #15
  %13 = load ptr, ptr @bio_err, align 8, !tbaa !19
  %14 = tail call i32 (ptr, ptr, ...) @BIO_printf(ptr noundef %13, ptr noundef nonnull @.str.643) #15
  %15 = load ptr, ptr @bio_err, align 8, !tbaa !19
  %16 = tail call i32 (ptr, ptr, ...) @BIO_printf(ptr noundef %15, ptr noundef nonnull @.str.644) #15
  %17 = load ptr, ptr @bio_err, align 8, !tbaa !19
  %18 = tail call i32 (ptr, ptr, ...) @BIO_printf(ptr noundef %17, ptr noundef nonnull @.str.645) #15
  %19 = load ptr, ptr %0, align 8, !tbaa !61
  %20 = tail call i32 @SSL_is_quic(ptr noundef %19) #15
  %.not18 = icmp eq i32 %20, 0
  br i1 %.not18, label %24, label %21

21:                                               ; preds = %4
  %22 = load ptr, ptr @bio_err, align 8, !tbaa !19
  %23 = tail call i32 (ptr, ptr, ...) @BIO_printf(ptr noundef %22, ptr noundef nonnull @.str.646) #15
  br label %39

24:                                               ; preds = %4
  %25 = load ptr, ptr %0, align 8, !tbaa !61
  %26 = tail call i32 @SSL_version(ptr noundef %25) #15
  %27 = icmp eq i32 %26, 772
  %28 = load ptr, ptr @bio_err, align 8, !tbaa !19
  br i1 %27, label %29, label %37

29:                                               ; preds = %24
  %30 = tail call i32 (ptr, ptr, ...) @BIO_printf(ptr noundef %28, ptr noundef nonnull @.str.647) #15
  %31 = load ptr, ptr @bio_err, align 8, !tbaa !19
  %32 = tail call i32 (ptr, ptr, ...) @BIO_printf(ptr noundef %31, ptr noundef nonnull @.str.648) #15
  %33 = load ptr, ptr @bio_err, align 8, !tbaa !19
  %34 = tail call i32 (ptr, ptr, ...) @BIO_printf(ptr noundef %33, ptr noundef nonnull @.str.649) #15
  %35 = load ptr, ptr @bio_err, align 8, !tbaa !19
  %36 = tail call i32 (ptr, ptr, ...) @BIO_printf(ptr noundef %35, ptr noundef nonnull @.str.650) #15
  br label %39

37:                                               ; preds = %24
  %38 = tail call i32 (ptr, ptr, ...) @BIO_printf(ptr noundef %28, ptr noundef nonnull @.str.651) #15
  br label %39

39:                                               ; preds = %29, %37, %21
  %40 = load ptr, ptr @bio_err, align 8, !tbaa !19
  %41 = tail call i32 (ptr, ptr, ...) @BIO_printf(ptr noundef %40, ptr noundef nonnull @.str.567) #15
  br label %.thread

42:                                               ; preds = %3
  %43 = load ptr, ptr @bio_err, align 8, !tbaa !19
  %44 = tail call i32 (ptr, ptr, ...) @BIO_printf(ptr noundef %43, ptr noundef nonnull @.str.531) #15
  br label %.thread

45:                                               ; preds = %3
  %46 = load ptr, ptr @bio_err, align 8, !tbaa !19
  %47 = tail call i32 (ptr, ptr, ...) @BIO_printf(ptr noundef %46, ptr noundef nonnull @.str.652) #15
  %48 = load ptr, ptr %0, align 8, !tbaa !61
  tail call void @do_ssl_shutdown(ptr noundef %48) #15
  %49 = load ptr, ptr %0, align 8, !tbaa !61
  tail call void @SSL_set_connect_state(ptr noundef %49) #15
  %50 = load ptr, ptr %0, align 8, !tbaa !61
  %51 = tail call i32 @SSL_get_fd(ptr noundef %50) #15
  %52 = tail call i32 @BIO_closesocket(i32 noundef %51) #15
  br label %.thread

53:                                               ; preds = %3
  %54 = load ptr, ptr @bio_err, align 8, !tbaa !19
  %55 = tail call i32 (ptr, ptr, ...) @BIO_printf(ptr noundef %54, ptr noundef nonnull @.str.653) #15
  %56 = load ptr, ptr %0, align 8, !tbaa !61
  %57 = tail call i32 @SSL_renegotiate(ptr noundef %56) #15
  %.not17 = icmp eq i32 %57, 0
  br i1 %.not17, label %74, label %.thread

58:                                               ; preds = %3
  %59 = tail call i32 @OPENSSL_strcasecmp(ptr noundef %2, ptr noundef nonnull @.str.630) #15
  %60 = icmp eq i32 %59, 0
  br i1 %60, label %64, label %61

61:                                               ; preds = %58
  %62 = tail call i32 @OPENSSL_strcasecmp(ptr noundef %2, ptr noundef nonnull @.str.631) #15
  %63 = icmp eq i32 %62, 0
  br i1 %63, label %64, label %.thread

64:                                               ; preds = %58, %61
  %.014 = phi i32 [ 1, %58 ], [ 0, %61 ]
  %65 = load ptr, ptr @bio_err, align 8, !tbaa !19
  %66 = tail call i32 (ptr, ptr, ...) @BIO_printf(ptr noundef %65, ptr noundef nonnull @.str.654) #15
  %67 = load ptr, ptr %0, align 8, !tbaa !61
  %68 = tail call i32 @SSL_key_update(ptr noundef %67, i32 noundef %.014) #15
  %.not16 = icmp eq i32 %68, 0
  br i1 %.not16, label %74, label %.thread

69:                                               ; preds = %3
  %70 = load ptr, ptr %0, align 8, !tbaa !61
  %71 = tail call i32 @SSL_stream_conclude(ptr noundef %70, i64 noundef 0) #15
  %.not = icmp eq i32 %71, 0
  br i1 %.not, label %74, label %72

72:                                               ; preds = %69
  %73 = getelementptr inbounds nuw i8, ptr %0, i64 44
  store i32 1, ptr %73, align 4, !tbaa !67
  br label %.thread

default.unreachable24:                            ; preds = %3
  unreachable

74:                                               ; preds = %64, %69, %53
  %75 = load ptr, ptr @bio_err, align 8, !tbaa !19
  %76 = tail call i32 (ptr, ptr, ...) @BIO_printf(ptr noundef %75, ptr noundef nonnull @.str.522) #15
  %77 = load ptr, ptr @bio_err, align 8, !tbaa !19
  tail call void @ERR_print_errors(ptr noundef %77) #15
  br label %.thread

.thread:                                          ; preds = %61, %64, %53, %74, %72, %45, %42, %39
  %.015 = phi i32 [ 1, %74 ], [ 3, %72 ], [ 4, %64 ], [ 2, %45 ], [ 1, %42 ], [ 3, %39 ], [ 4, %53 ], [ 0, %61 ]
  ret i32 %.015
}